; ModuleID = 'source-C-CXX/6/1111.c'
source_filename = "source-C-CXX/6/1111.c"
target datalayout = "e-m:e-p270:32:32-p271:32:32-p272:64:64-i64:64-f80:128-n8:16:32:64-S128"
target triple = "x86_64-pc-linux-gnu"

@.str = private unnamed_addr constant [3 x i8] c"%s\00", align 1

; Function Attrs: nofree nounwind sspstrong uwtable
define dso_local i32 @main() local_unnamed_addr #0 {
  %1 = alloca [300 x i8], align 16
  %2 = alloca [300 x i8], align 16
  %3 = alloca [300 x i8], align 16
  %4 = getelementptr inbounds [300 x i8], [300 x i8]* %3, i64 0, i64 0
  %5 = getelementptr inbounds [300 x i8], [300 x i8]* %1, i64 0, i64 0
  call void @llvm.lifetime.start.p0i8(i64 300, i8* nonnull %5) #5
  %6 = getelementptr inbounds [300 x i8], [300 x i8]* %2, i64 0, i64 0
  call void @llvm.lifetime.start.p0i8(i64 300, i8* nonnull %6) #5
  %7 = getelementptr inbounds [300 x i8], [300 x i8]* %3, i64 0, i64 0
  call void @llvm.lifetime.start.p0i8(i64 300, i8* nonnull %7) #5
  %8 = call i32 (i8*, ...) @__isoc99_scanf(i8* getelementptr inbounds ([3 x i8], [3 x i8]* @.str, i64 0, i64 0), i8* nonnull %5)
  %9 = call i32 (i8*, ...) @__isoc99_scanf(i8* getelementptr inbounds ([3 x i8], [3 x i8]* @.str, i64 0, i64 0), i8* nonnull %6)
  %10 = call i32 (i8*, ...) @__isoc99_scanf(i8* getelementptr inbounds ([3 x i8], [3 x i8]* @.str, i64 0, i64 0), i8* nonnull %7)
  %11 = call i64 @strlen(i8* noundef nonnull %5) #6
  %12 = trunc i64 %11 to i32
  %13 = call i64 @strlen(i8* noundef nonnull %6) #6
  %14 = trunc i64 %13 to i32
  %15 = load i8, i8* %6, align 16
  %16 = icmp sgt i32 %12, 0
  br i1 %16, label %17, label %68

17:                                               ; preds = %0
  %18 = icmp sgt i32 %14, 0
  br i1 %18, label %19, label %50

19:                                               ; preds = %17
  %20 = and i64 %11, 4294967295
  %21 = and i64 %13, 4294967295
  %22 = getelementptr inbounds [300 x i8], [300 x i8]* %2, i64 0, i64 0
  %23 = load i8, i8* %22, align 16
  %24 = icmp eq i8 %15, %23
  br label %25

25:                                               ; preds = %19, %35
  %26 = phi i64 [ 0, %19 ], [ %36, %35 ]
  %27 = getelementptr inbounds [300 x i8], [300 x i8]* %1, i64 0, i64 %26
  %28 = load i8, i8* %27, align 1, !tbaa !5
  %29 = icmp eq i8 %28, %15
  br i1 %29, label %30, label %35

30:                                               ; preds = %25
  br i1 %24, label %38, label %31

31:                                               ; preds = %44, %30
  %32 = phi i64 [ 0, %30 ], [ %42, %44 ]
  %33 = trunc i64 %32 to i32
  %34 = icmp eq i32 %33, %14
  br i1 %34, label %62, label %35

35:                                               ; preds = %31, %25
  %36 = add nuw nsw i64 %26, 1
  %37 = icmp eq i64 %36, %20
  br i1 %37, label %68, label %25, !llvm.loop !8

38:                                               ; preds = %30, %44
  %39 = phi i64 [ %42, %44 ], [ 0, %30 ]
  %40 = phi i64 [ %41, %44 ], [ %26, %30 ]
  %41 = add nuw nsw i64 %40, 1
  %42 = add nuw nsw i64 %39, 1
  %43 = icmp eq i64 %42, %21
  br i1 %43, label %62, label %44, !llvm.loop !10

44:                                               ; preds = %38
  %45 = getelementptr inbounds [300 x i8], [300 x i8]* %1, i64 0, i64 %41
  %46 = load i8, i8* %45, align 1, !tbaa !5
  %47 = getelementptr inbounds [300 x i8], [300 x i8]* %2, i64 0, i64 %42
  %48 = load i8, i8* %47, align 1, !tbaa !5
  %49 = icmp eq i8 %46, %48
  br i1 %49, label %38, label %31

50:                                               ; preds = %17
  %51 = icmp eq i32 %14, 0
  br i1 %51, label %52, label %68

52:                                               ; preds = %50
  %53 = and i64 %11, 4294967295
  br label %54

54:                                               ; preds = %52, %59
  %55 = phi i64 [ 0, %52 ], [ %60, %59 ]
  %56 = getelementptr inbounds [300 x i8], [300 x i8]* %1, i64 0, i64 %55
  %57 = load i8, i8* %56, align 1, !tbaa !5
  %58 = icmp eq i8 %57, %15
  br i1 %58, label %62, label %59

59:                                               ; preds = %54
  %60 = add nuw nsw i64 %55, 1
  %61 = icmp eq i64 %60, %53
  br i1 %61, label %68, label %54, !llvm.loop !8

62:                                               ; preds = %54, %31, %38
  %63 = phi i64 [ %26, %38 ], [ %26, %31 ], [ %55, %54 ]
  br i1 %18, label %64, label %68

64:                                               ; preds = %62
  %65 = and i64 %63, 4294967295
  %66 = getelementptr [300 x i8], [300 x i8]* %1, i64 0, i64 %65
  %67 = and i64 %13, 4294967295
  call void @llvm.memcpy.p0i8.p0i8.i64(i8* align 1 %66, i8* nonnull align 16 %4, i64 %67, i1 false)
  br label %68

68:                                               ; preds = %59, %35, %50, %64, %0, %62
  %69 = call i32 (i8*, ...) @printf(i8* nonnull dereferenceable(1) getelementptr inbounds ([3 x i8], [3 x i8]* @.str, i64 0, i64 0), i8* nonnull %5)
  call void @llvm.lifetime.end.p0i8(i64 300, i8* nonnull %7) #5
  call void @llvm.lifetime.end.p0i8(i64 300, i8* nonnull %6) #5
  call void @llvm.lifetime.end.p0i8(i64 300, i8* nonnull %5) #5
  ret i32 0
}

; Function Attrs: argmemonly mustprogress nofree nosync nounwind willreturn
declare void @llvm.lifetime.start.p0i8(i64 immarg, i8* nocapture) #1

; Function Attrs: nofree nounwind
declare noundef i32 @__isoc99_scanf(i8* nocapture noundef readonly, ...) local_unnamed_addr #2

; Function Attrs: argmemonly mustprogress nofree nounwind readonly willreturn
declare i64 @strlen(i8* nocapture) local_unnamed_addr #3

; Function Attrs: nofree nounwind
declare noundef i32 @printf(i8* nocapture noundef readonly, ...) local_unnamed_addr #2

; Function Attrs: argmemonly mustprogress nofree nosync nounwind willreturn
declare void @llvm.lifetime.end.p0i8(i64 immarg, i8* nocapture) #1

; Function Attrs: argmemonly nofree nounwind willreturn
declare void @llvm.memcpy.p0i8.p0i8.i64(i8* noalias nocapture writeonly, i8* noalias nocapture readonly, i64, i1 immarg) #4


!llvm.module.flags = !{!0, !1, !2, !3}
!llvm.ident = !{!4}

!0 = !{i32 1, !"wchar_size", i32 4}
!1 = !{i32 7, !"PIC Level", i32 2}
!2 = !{i32 7, !"PIE Level", i32 2}
!3 = !{i32 7, !"uwtable", i32 1}
!4 = !{!"clang version 13.0.0"}
!5 = !{!6, !6, i64 0}
!6 = !{!"omnipotent char", !7, i64 0}
!7 = !{!"Simple C/C++ TBAA"}
!8 = distinct !{!8, !9}
!9 = !{!"llvm.loop.mustprogress"}
!10 = distinct !{!10, !9}
